target datalayout = "e-m:e-p270:32:32-p271:32:32-p272:64:64-i64:64-i128:128-f80:128-n8:16:32:64-S128"
target triple = "x86_64-pc-linux-gnu"

%struct.termiosmodulestate = type { ptr }
%struct.winsize = type { i16, i16, i16, i16 }

; Function Attrs: inlinehint nounwind uwtable
define internal void @Py_DECREF(ptr noundef %0) #5 {
  %2 = alloca ptr, align 8
  store ptr %0, ptr %2, align 8, !tbaa !3
  %3 = load ptr, ptr %2, align 8, !tbaa !3
  call void @_Py_DecRef(ptr noundef %3)
  ret void
}

; Function Attrs: nounwind uwtable
define internal ptr @termios_tcgetwinsize_impl(ptr noundef %0, i32 noundef %1) #0 {
  %3 = alloca ptr, align 8
  %4 = alloca ptr, align 8
  %5 = alloca i32, align 4
  %6 = alloca ptr, align 8
  %7 = alloca %struct.winsize, align 2
  %8 = alloca i32, align 4
  %9 = alloca ptr, align 8
  %10 = alloca i32, align 4
  %11 = alloca ptr, align 8
  store ptr %0, ptr %4, align 8, !tbaa !3
  store i32 %1, ptr %5, align 4, !tbaa !11
  call void @llvm.lifetime.start.p0(i64 8, ptr %6) #7
  %12 = load ptr, ptr %4, align 8, !tbaa !3
  %13 = call ptr @PyModule_GetState(ptr noundef %12)
  store ptr %13, ptr %6, align 8, !tbaa !8
  call void @llvm.lifetime.start.p0(i64 8, ptr %7) #7
  call void @llvm.lifetime.start.p0(i64 4, ptr %8) #7
  call void @llvm.lifetime.start.p0(i64 8, ptr %9) #7
  %14 = call ptr @PyEval_SaveThread()
  store ptr %14, ptr %9, align 8, !tbaa !17
  %15 = load i32, ptr %5, align 4, !tbaa !11
  %16 = call i32 (i32, i64, ...) @ioctl(i32 noundef %15, i64 noundef 21523, ptr noundef %7) #7
  store i32 %16, ptr %8, align 4, !tbaa !11
  %17 = load ptr, ptr %9, align 8, !tbaa !17
  call void @PyEval_RestoreThread(ptr noundef %17)
  call void @llvm.lifetime.end.p0(i64 8, ptr %9) #7
  %18 = load i32, ptr %8, align 4, !tbaa !11
  %19 = icmp eq i32 %18, -1
  br i1 %19, label %20, label %25

20:                                               ; preds = %2
  %21 = load ptr, ptr %6, align 8, !tbaa !8
  %22 = getelementptr inbounds nuw %struct.termiosmodulestate, ptr %21, i32 0, i32 0
  %23 = load ptr, ptr %22, align 8, !tbaa !9
  %24 = call ptr @PyErr_SetFromErrno(ptr noundef %23)
  store ptr %24, ptr %3, align 8
  store i32 1, ptr %10, align 4
  br label %49

25:                                               ; preds = %2
  call void @llvm.lifetime.start.p0(i64 8, ptr %11) #7
  %26 = call ptr @PyTuple_New(i64 noundef 2)
  store ptr %26, ptr %11, align 8, !tbaa !3
  %27 = icmp ne ptr %26, null
  br i1 %27, label %29, label %28

28:                                               ; preds = %25
  store ptr null, ptr %3, align 8
  store i32 1, ptr %10, align 4
  br label %48

29:                                               ; preds = %25
  %30 = load ptr, ptr %11, align 8, !tbaa !3
  %31 = getelementptr inbounds nuw %struct.winsize, ptr %7, i32 0, i32 0
  %32 = load i16, ptr %31, align 2, !tbaa !32
  %33 = zext i16 %32 to i64
  %34 = call ptr @PyLong_FromLong(i64 noundef %33)
  %35 = call i32 @PyTuple_SetItem(ptr noundef %30, i64 noundef 0, ptr noundef %34)
  %36 = load ptr, ptr %11, align 8, !tbaa !3
  %37 = getelementptr inbounds nuw %struct.winsize, ptr %7, i32 0, i32 1
  %38 = load i16, ptr %37, align 2, !tbaa !35
  %39 = zext i16 %38 to i64
  %40 = call ptr @PyLong_FromLong(i64 noundef %39)
  %41 = call i32 @PyTuple_SetItem(ptr noundef %36, i64 noundef 1, ptr noundef %40)
  %42 = call ptr @PyErr_Occurred()
  %43 = icmp ne ptr %42, null
  br i1 %43, label %44, label %46

44:                                               ; preds = %29
  %45 = load ptr, ptr %11, align 8, !tbaa !3
  call void @Py_DECREF(ptr noundef %45)
  store ptr null, ptr %3, align 8
  store i32 1, ptr %10, align 4
  br label %48

46:                                               ; preds = %29
  %47 = load ptr, ptr %11, align 8, !tbaa !3
  store ptr %47, ptr %3, align 8
  store i32 1, ptr %10, align 4
  br label %48

48:                                               ; preds = %46, %44, %28
  call void @llvm.lifetime.end.p0(i64 8, ptr %11) #7
  br label %49

49:                                               ; preds = %48, %20
  call void @llvm.lifetime.end.p0(i64 4, ptr %8) #7
  call void @llvm.lifetime.end.p0(i64 8, ptr %7) #7
  call void @llvm.lifetime.end.p0(i64 8, ptr %6) #7
  %50 = load ptr, ptr %3, align 8
  ret ptr %50
}

; Function Attrs: nounwind uwtable
define internal ptr @termios_tcgetwinsize(ptr noundef %0, ptr noundef %1) #0 {
  %3 = alloca ptr, align 8
  %4 = alloca ptr, align 8
  %5 = alloca ptr, align 8
  %6 = alloca i32, align 4
  store ptr %0, ptr %3, align 8, !tbaa !3
  store ptr %1, ptr %4, align 8, !tbaa !3
  call void @llvm.lifetime.start.p0(i64 8, ptr %5) #7
  store ptr null, ptr %5, align 8, !tbaa !3
  call void @llvm.lifetime.start.p0(i64 4, ptr %6) #7
  %7 = load ptr, ptr %4, align 8, !tbaa !3
  %8 = call i32 @PyObject_AsFileDescriptor(ptr noundef %7)
  store i32 %8, ptr %6, align 4, !tbaa !11
  %9 = load i32, ptr %6, align 4, !tbaa !11
  %10 = icmp slt i32 %9, 0
  br i1 %10, label %11, label %12

11:                                               ; preds = %2
  br label %16

12:                                               ; preds = %2
  %13 = load ptr, ptr %3, align 8, !tbaa !3
  %14 = load i32, ptr %6, align 4, !tbaa !11
  %15 = call ptr @termios_tcgetwinsize_impl(ptr noundef %13, i32 noundef %14)
  store ptr %15, ptr %5, align 8, !tbaa !3
  br label %16

16:                                               ; preds = %12, %11
  %17 = load ptr, ptr %5, align 8, !tbaa !3
  call void @llvm.lifetime.end.p0(i64 4, ptr %6) #7
  call void @llvm.lifetime.end.p0(i64 8, ptr %5) #7
  ret ptr %17
}