; Function Attrs: nounwind uwtable
define internal ptr @termios_tcgetwinsize(ptr noundef %0, ptr noundef %1) #0 {
  %3 = alloca %struct.winsize, align 2
  %4 = tail call i32 @PyObject_AsFileDescriptor(ptr noundef %1) #5
  %5 = icmp slt i32 %4, 0
  br i1 %5, label %28, label %6

6:                                                ; preds = %2
  %7 = tail call ptr @PyModule_GetState(ptr noundef %0) #5
  call void @llvm.lifetime.start.p0(i64 8, ptr nonnull %3) #5
  %8 = tail call ptr @PyEval_SaveThread() #5
  %9 = call i32 (i32, i64, ...) @ioctl(i32 noundef range(i32 0, -2147483648) %4, i64 noundef 21523, ptr noundef nonnull %3) #5
  call void @PyEval_RestoreThread(ptr noundef %8) #5
  %10 = icmp eq i32 %9, -1
  br i1 %10, label %11, label %14

11:                                               ; preds = %6
  %12 = load ptr, ptr %7, align 8, !tbaa !3
  %13 = call ptr @PyErr_SetFromErrno(ptr noundef %12) #5
  br label %termios_tcgetwinsize_impl.exit

14:                                               ; preds = %6
  %15 = call ptr @PyTuple_New(i64 noundef 2) #5
  %.not.i = icmp eq ptr %15, null
  br i1 %.not.i, label %termios_tcgetwinsize_impl.exit, label %16

16:                                               ; preds = %14
  %17 = load i16, ptr %3, align 2, !tbaa !19
  %18 = zext i16 %17 to i64
  %19 = call ptr @PyLong_FromLong(i64 noundef %18) #5
  %20 = call i32 @PyTuple_SetItem(ptr noundef nonnull %15, i64 noundef 0, ptr noundef %19) #5
  %21 = getelementptr inbounds nuw i8, ptr %3, i64 2
  %22 = load i16, ptr %21, align 2, !tbaa !22
  %23 = zext i16 %22 to i64
  %24 = call ptr @PyLong_FromLong(i64 noundef %23) #5
  %25 = call i32 @PyTuple_SetItem(ptr noundef nonnull %15, i64 noundef 1, ptr noundef %24) #5
  %26 = call ptr @PyErr_Occurred() #5
  %.not10.i = icmp eq ptr %26, null
  br i1 %.not10.i, label %termios_tcgetwinsize_impl.exit, label %27

27:                                               ; preds = %16
  call void @_Py_DecRef(ptr noundef nonnull %15) #5
  br label %termios_tcgetwinsize_impl.exit

termios_tcgetwinsize_impl.exit:                   ; preds = %11, %14, %16, %27
  %.0.i = phi ptr [ %13, %11 ], [ null, %27 ], [ null, %14 ], [ %15, %16 ]
  call void @llvm.lifetime.end.p0(i64 8, ptr nonnull %3) #5
  br label %28

28:                                               ; preds = %2, %termios_tcgetwinsize_impl.exit
  %.0 = phi ptr [ null, %2 ], [ %.0.i, %termios_tcgetwinsize_impl.exit ]
  ret ptr %.0
}